target datalayout = "e-m:e-p270:32:32-p271:32:32-p272:64:64-i64:64-i128:128-f80:128-n8:16:32:64-S128"
target triple = "x86_64-pc-linux-gnu"

%struct.log_options_t = type { i32, i32, i32, i8, i8, i8, i32 }

@conf = dso_local global ptr null, align 8
@__const._handle_spank_mode.lopts = private unnamed_addr constant { i32, i32, i32, i8, i8, i8, i8, i32 } { i32 3, i32 3, i32 3, i8 1, i8 0, i8 0, i8 0, i32 0 }, align 4
@.str.47 = private unnamed_addr constant [9 x i8] c"spank-%s\00", align 1
@.str.48 = private unnamed_addr constant [26 x i8] c"spank environment invalid\00", align 1
@.str.49 = private unnamed_addr constant [50 x i8] c"Running spank/%s for jobid [%u] uid [%u] gid [%u]\00", align 1
@.str.50 = private unnamed_addr constant [7 x i8] c"prolog\00", align 1
@.str.51 = private unnamed_addr constant [7 x i8] c"epilog\00", align 1
@.str.52 = private unnamed_addr constant [27 x i8] c"Invalid mode %s specified!\00", align 1
@.str.62 = private unnamed_addr constant [12 x i8] c"SLURM_JOBID\00", align 1
@.str.63 = private unnamed_addr constant [34 x i8] c"Unable to get SLURM_JOBID in env!\00", align 1
@.str.64 = private unnamed_addr constant [23 x i8] c"Invalid SLURM_JOBID=%s\00", align 1
@.str.65 = private unnamed_addr constant [10 x i8] c"SLURM_UID\00", align 1
@.str.66 = private unnamed_addr constant [32 x i8] c"Unable to get SLURM_UID in env!\00", align 1
@.str.67 = private unnamed_addr constant [21 x i8] c"Invalid SLURM_UID=%s\00", align 1
@.str.68 = private unnamed_addr constant [14 x i8] c"SLURM_JOB_GID\00", align 1
@.str.69 = private unnamed_addr constant [36 x i8] c"Unable to get SLURM_JOB_GID in env!\00", align 1
@.str.70 = private unnamed_addr constant [25 x i8] c"Invalid SLURM_JOB_GID=%s\00", align 1

; Function Attrs: nounwind uwtable
define internal i32 @_get_jobid_uid_gid_from_env(ptr noundef %0, ptr noundef %1, ptr noundef %2) #0 {
  %4 = alloca i32, align 4
  %5 = alloca ptr, align 8
  %6 = alloca ptr, align 8
  %7 = alloca ptr, align 8
  %8 = alloca ptr, align 8
  %9 = alloca ptr, align 8
  %10 = alloca i32, align 4
  store ptr %0, ptr %5, align 8
  store ptr %1, ptr %6, align 8
  store ptr %2, ptr %7, align 8
  call void @llvm.lifetime.start.p0(i64 8, ptr %8) #9
  call void @llvm.lifetime.start.p0(i64 8, ptr %9) #9
  %11 = call ptr @getenv(ptr noundef @.str.62) #9
  store ptr %11, ptr %8, align 8
  %12 = icmp ne ptr %11, null
  br i1 %12, label %15, label %13

13:                                               ; preds = %3
  %14 = call i32 (ptr, ...) @error(ptr noundef @.str.63)
  store i32 %14, ptr %4, align 4
  store i32 1, ptr %10, align 4
  br label %62

15:                                               ; preds = %3
  %16 = load ptr, ptr %8, align 8
  %17 = call i64 @strtoul(ptr noundef %16, ptr noundef %9, i32 noundef 10) #9
  %18 = trunc i64 %17 to i32
  %19 = load ptr, ptr %5, align 8
  store i32 %18, ptr %19, align 4
  %20 = load ptr, ptr %9, align 8
  %21 = load i8, ptr %20, align 1
  %22 = sext i8 %21 to i32
  %23 = icmp ne i32 %22, 0
  br i1 %23, label %24, label %27

24:                                               ; preds = %15
  %25 = load ptr, ptr %8, align 8
  %26 = call i32 (ptr, ...) @error(ptr noundef @.str.64, ptr noundef %25)
  store i32 %26, ptr %4, align 4
  store i32 1, ptr %10, align 4
  br label %62

27:                                               ; preds = %15
  %28 = call ptr @getenv(ptr noundef @.str.65) #9
  store ptr %28, ptr %8, align 8
  %29 = icmp ne ptr %28, null
  br i1 %29, label %32, label %30

30:                                               ; preds = %27
  %31 = call i32 (ptr, ...) @error(ptr noundef @.str.66)
  store i32 %31, ptr %4, align 4
  store i32 1, ptr %10, align 4
  br label %62

32:                                               ; preds = %27
  %33 = load ptr, ptr %8, align 8
  %34 = call i64 @strtoul(ptr noundef %33, ptr noundef %9, i32 noundef 10) #9
  %35 = trunc i64 %34 to i32
  %36 = load ptr, ptr %6, align 8
  store i32 %35, ptr %36, align 4
  %37 = load ptr, ptr %9, align 8
  %38 = load i8, ptr %37, align 1
  %39 = sext i8 %38 to i32
  %40 = icmp ne i32 %39, 0
  br i1 %40, label %41, label %44

41:                                               ; preds = %32
  %42 = load ptr, ptr %8, align 8
  %43 = call i32 (ptr, ...) @error(ptr noundef @.str.67, ptr noundef %42)
  store i32 %43, ptr %4, align 4
  store i32 1, ptr %10, align 4
  br label %62

44:                                               ; preds = %32
  %45 = call ptr @getenv(ptr noundef @.str.68) #9
  store ptr %45, ptr %8, align 8
  %46 = icmp ne ptr %45, null
  br i1 %46, label %49, label %47

47:                                               ; preds = %44
  %48 = call i32 (ptr, ...) @error(ptr noundef @.str.69)
  store i32 %48, ptr %4, align 4
  store i32 1, ptr %10, align 4
  br label %62

49:                                               ; preds = %44
  %50 = load ptr, ptr %8, align 8
  %51 = call i64 @strtoul(ptr noundef %50, ptr noundef %9, i32 noundef 10) #9
  %52 = trunc i64 %51 to i32
  %53 = load ptr, ptr %7, align 8
  store i32 %52, ptr %53, align 4
  %54 = load ptr, ptr %9, align 8
  %55 = load i8, ptr %54, align 1
  %56 = sext i8 %55 to i32
  %57 = icmp ne i32 %56, 0
  br i1 %57, label %58, label %61

58:                                               ; preds = %49
  %59 = load ptr, ptr %8, align 8
  %60 = call i32 (ptr, ...) @error(ptr noundef @.str.70, ptr noundef %59)
  store i32 %60, ptr %4, align 4
  store i32 1, ptr %10, align 4
  br label %62

61:                                               ; preds = %49
  store i32 0, ptr %4, align 4
  store i32 1, ptr %10, align 4
  br label %62

62:                                               ; preds = %61, %58, %47, %41, %30, %24, %13
  call void @llvm.lifetime.end.p0(i64 8, ptr %9) #9
  call void @llvm.lifetime.end.p0(i64 8, ptr %8) #9
  %63 = load i32, ptr %4, align 4
  ret i32 %63
}

; Function Attrs: nounwind uwtable
define internal i32 @_handle_spank_mode(i32 noundef %0, ptr noundef %1) #0 {
  %3 = alloca i32, align 4
  %4 = alloca i32, align 4
  %5 = alloca ptr, align 8
  %6 = alloca ptr, align 8
  %7 = alloca ptr, align 8
  %8 = alloca i32, align 4
  %9 = alloca i32, align 4
  %10 = alloca i32, align 4
  %11 = alloca %struct.log_options_t, align 8
  %12 = alloca i32, align 4
  store i32 %0, ptr %4, align 4
  store ptr %1, ptr %5, align 8
  call void @llvm.lifetime.start.p0(i64 8, ptr %6) #9
  store ptr null, ptr %6, align 8
  call void @llvm.lifetime.start.p0(i64 8, ptr %7) #9
  %13 = load ptr, ptr %5, align 8
  %14 = getelementptr inbounds ptr, ptr %13, i64 2
  %15 = load ptr, ptr %14, align 8
  store ptr %15, ptr %7, align 8
  call void @llvm.lifetime.start.p0(i64 4, ptr %8) #9
  store i32 -1, ptr %8, align 4
  call void @llvm.lifetime.start.p0(i64 4, ptr %9) #9
  store i32 -1, ptr %9, align 4
  call void @llvm.lifetime.start.p0(i64 4, ptr %10) #9
  store i32 -1, ptr %10, align 4
  call void @llvm.lifetime.start.p0(i64 20, ptr %11) #9
  call void @llvm.memcpy.p0.p0.i64(ptr align 4 %11, ptr align 4 @__const._handle_spank_mode.lopts, i64 20, i1 false)
  %16 = getelementptr inbounds nuw %struct.log_options_t, ptr %11, i32 0, i32 1
  store i32 0, ptr %16, align 4
  %17 = load ptr, ptr %7, align 8
  call void (ptr, ptr, ...) @_xstrfmtcat(ptr noundef %6, ptr noundef @.str.47, ptr noundef %17)
  %18 = load ptr, ptr %6, align 8
  %19 = call i32 @log_init(ptr noundef %18, ptr noundef byval(%struct.log_options_t) align 8 %11, i32 noundef 24, ptr noundef null)
  call void @slurm_xfree(ptr noundef %6)
  %20 = call ptr @_read_slurmd_conf_lite(i32 noundef 0)
  store ptr %20, ptr @conf, align 8
  %21 = call i32 @close(i32 noundef 0)
  %22 = call i32 @_get_jobid_uid_gid_from_env(ptr noundef %10, ptr noundef %8, ptr noundef %9)
  %23 = icmp ne i32 %22, 0
  br i1 %23, label %24, label %26

24:                                               ; preds = %2
  %25 = call i32 (ptr, ...) @error(ptr noundef @.str.48)
  store i32 %25, ptr %3, align 4
  store i32 1, ptr %12, align 4
  br label %69

26:                                               ; preds = %2
  br label %27

27:                                               ; preds = %26
  br label %28

28:                                               ; preds = %27
  %29 = call i32 @get_log_level()
  %30 = icmp sge i32 %29, 5
  br i1 %30, label %31, label %36

31:                                               ; preds = %28
  %32 = load ptr, ptr %7, align 8
  %33 = load i32, ptr %10, align 4
  %34 = load i32, ptr %8, align 4
  %35 = load i32, ptr %9, align 4
  call void (i32, ptr, ...) @log_var(i32 noundef 5, ptr noundef @.str.49, ptr noundef %32, i32 noundef %33, i32 noundef %34, i32 noundef %35)
  br label %36

36:                                               ; preds = %31, %28
  br label %37

37:                                               ; preds = %36
  br label %38

38:                                               ; preds = %37
  br label %39

39:                                               ; preds = %38
  br label %40

40:                                               ; preds = %39
  %41 = load ptr, ptr %7, align 8
  %42 = call i32 @xstrcmp(ptr noundef %41, ptr noundef @.str.50)
  %43 = icmp ne i32 %42, 0
  br i1 %43, label %52, label %44

44:                                               ; preds = %40
  %45 = load i32, ptr %10, align 4
  %46 = load i32, ptr %8, align 4
  %47 = load i32, ptr %9, align 4
  %48 = call i32 @spank_job_prolog(i32 noundef %45, i32 noundef %46, i32 noundef %47)
  %49 = icmp slt i32 %48, 0
  br i1 %49, label %50, label %51

50:                                               ; preds = %44
  store i32 -1, ptr %3, align 4
  store i32 1, ptr %12, align 4
  br label %69

51:                                               ; preds = %44
  br label %68

52:                                               ; preds = %40
  %53 = load ptr, ptr %7, align 8
  %54 = call i32 @xstrcmp(ptr noundef %53, ptr noundef @.str.51)
  %55 = icmp ne i32 %54, 0
  br i1 %55, label %64, label %56

56:                                               ; preds = %52
  %57 = load i32, ptr %10, align 4
  %58 = load i32, ptr %8, align 4
  %59 = load i32, ptr %9, align 4
  %60 = call i32 @spank_job_epilog(i32 noundef %57, i32 noundef %58, i32 noundef %59)
  %61 = icmp slt i32 %60, 0
  br i1 %61, label %62, label %63

62:                                               ; preds = %56
  store i32 -1, ptr %3, align 4
  store i32 1, ptr %12, align 4
  br label %69

63:                                               ; preds = %56
  br label %67

64:                                               ; preds = %52
  %65 = load ptr, ptr %7, align 8
  %66 = call i32 (ptr, ...) @error(ptr noundef @.str.52, ptr noundef %65)
  store i32 -1, ptr %3, align 4
  store i32 1, ptr %12, align 4
  br label %69

67:                                               ; preds = %63
  br label %68

68:                                               ; preds = %67, %51
  store i32 0, ptr %3, align 4
  store i32 1, ptr %12, align 4
  br label %69

69:                                               ; preds = %68, %64, %62, %50, %24
  call void @llvm.lifetime.end.p0(i64 20, ptr %11) #9
  call void @llvm.lifetime.end.p0(i64 4, ptr %10) #9
  call void @llvm.lifetime.end.p0(i64 4, ptr %9) #9
  call void @llvm.lifetime.end.p0(i64 4, ptr %8) #9
  call void @llvm.lifetime.end.p0(i64 8, ptr %7) #9
  call void @llvm.lifetime.end.p0(i64 8, ptr %6) #9
  %70 = load i32, ptr %3, align 4
  ret i32 %70
}