; Function Attrs: nounwind uwtable
define internal fastcc i32 @_handle_spank_mode(ptr %.16.val) unnamed_addr #1 {
  %1 = alloca ptr, align 8
  %2 = alloca ptr, align 8
  %3 = alloca %struct.log_options_t, align 8
  call void @llvm.lifetime.start.p0(i64 8, ptr nonnull %2) #15
  store ptr null, ptr %2, align 8
  call void @llvm.lifetime.start.p0(i64 20, ptr nonnull %3) #15
  call void @llvm.memcpy.p0.p0.i64(ptr noundef nonnull align 8 dereferenceable(20) %3, ptr noundef nonnull align 4 dereferenceable(20) @__const._handle_spank_mode.lopts, i64 20, i1 false)
  %4 = getelementptr inbounds nuw i8, ptr %3, i64 4
  store i32 0, ptr %4, align 4
  call void (ptr, ptr, ...) @_xstrfmtcat(ptr noundef nonnull %2, ptr noundef nonnull @.str.47, ptr noundef %.16.val) #15
  %5 = load ptr, ptr %2, align 8
  %6 = call i32 @log_init(ptr noundef %5, ptr noundef nonnull byval(%struct.log_options_t) align 8 %3, i32 noundef 24, ptr noundef null) #15
  call void @slurm_xfree(ptr noundef nonnull %2) #15
  %7 = call fastcc ptr @_read_slurmd_conf_lite()
  store ptr %7, ptr @conf, align 8
  %8 = call i32 @close(i32 noundef 0) #15
  call void @llvm.lifetime.start.p0(i64 8, ptr nonnull %1) #15
  %9 = call ptr @getenv(ptr noundef nonnull @.str.62) #15
  %.not.i = icmp eq ptr %9, null
  br i1 %.not.i, label %10, label %12

10:                                               ; preds = %0
  %11 = call i32 (ptr, ...) @error(ptr noundef nonnull @.str.63) #15
  br label %_get_jobid_uid_gid_from_env.exit

12:                                               ; preds = %0
  %13 = call i64 @strtoul(ptr noundef nonnull %9, ptr noundef nonnull %1, i32 noundef 10) #15
  %14 = trunc i64 %13 to i32
  %15 = load ptr, ptr %1, align 8
  %16 = load i8, ptr %15, align 1
  %.not12.i = icmp eq i8 %16, 0
  br i1 %.not12.i, label %19, label %17

17:                                               ; preds = %12
  %18 = call i32 (ptr, ...) @error(ptr noundef nonnull @.str.64, ptr noundef nonnull %9) #15
  br label %_get_jobid_uid_gid_from_env.exit

19:                                               ; preds = %12
  %20 = call ptr @getenv(ptr noundef nonnull @.str.65) #15
  %.not13.i = icmp eq ptr %20, null
  br i1 %.not13.i, label %21, label %23

21:                                               ; preds = %19
  %22 = call i32 (ptr, ...) @error(ptr noundef nonnull @.str.66) #15
  br label %_get_jobid_uid_gid_from_env.exit

23:                                               ; preds = %19
  %24 = call i64 @strtoul(ptr noundef nonnull %20, ptr noundef nonnull %1, i32 noundef 10) #15
  %25 = trunc i64 %24 to i32
  %26 = load ptr, ptr %1, align 8
  %27 = load i8, ptr %26, align 1
  %.not14.i = icmp eq i8 %27, 0
  br i1 %.not14.i, label %30, label %28

28:                                               ; preds = %23
  %29 = call i32 (ptr, ...) @error(ptr noundef nonnull @.str.67, ptr noundef nonnull %20) #15
  br label %_get_jobid_uid_gid_from_env.exit

30:                                               ; preds = %23
  %31 = call ptr @getenv(ptr noundef nonnull @.str.68) #15
  %.not15.i = icmp eq ptr %31, null
  br i1 %.not15.i, label %32, label %34

32:                                               ; preds = %30
  %33 = call i32 (ptr, ...) @error(ptr noundef nonnull @.str.69) #15
  br label %_get_jobid_uid_gid_from_env.exit

34:                                               ; preds = %30
  %35 = call i64 @strtoul(ptr noundef nonnull %31, ptr noundef nonnull %1, i32 noundef 10) #15
  %36 = trunc i64 %35 to i32
  %37 = load ptr, ptr %1, align 8
  %38 = load i8, ptr %37, align 1
  %.not16.i = icmp eq i8 %38, 0
  br i1 %.not16.i, label %_get_jobid_uid_gid_from_env.exit.thread, label %39

_get_jobid_uid_gid_from_env.exit.thread:          ; preds = %34
  call void @llvm.lifetime.end.p0(i64 8, ptr nonnull %1) #15
  br label %43

39:                                               ; preds = %34
  %40 = call i32 (ptr, ...) @error(ptr noundef nonnull @.str.70, ptr noundef nonnull %31) #15
  br label %_get_jobid_uid_gid_from_env.exit

_get_jobid_uid_gid_from_env.exit:                 ; preds = %10, %17, %21, %28, %32, %39
  %.011 = phi i32 [ -1, %10 ], [ -1, %21 ], [ %25, %32 ], [ %25, %39 ], [ %25, %28 ], [ -1, %17 ]
  %.010 = phi i32 [ -1, %10 ], [ -1, %21 ], [ -1, %32 ], [ %36, %39 ], [ -1, %28 ], [ -1, %17 ]
  %.09 = phi i32 [ -1, %10 ], [ %14, %21 ], [ %14, %32 ], [ %14, %39 ], [ %14, %28 ], [ %14, %17 ]
  %.0.i = phi i32 [ %11, %10 ], [ %22, %21 ], [ %33, %32 ], [ %40, %39 ], [ %29, %28 ], [ %18, %17 ]
  call void @llvm.lifetime.end.p0(i64 8, ptr nonnull %1) #15
  %.not = icmp eq i32 %.0.i, 0
  br i1 %.not, label %43, label %41

41:                                               ; preds = %_get_jobid_uid_gid_from_env.exit
  %42 = call i32 (ptr, ...) @error(ptr noundef nonnull @.str.48) #15
  br label %60

43:                                               ; preds = %_get_jobid_uid_gid_from_env.exit.thread, %_get_jobid_uid_gid_from_env.exit
  %.0919 = phi i32 [ %14, %_get_jobid_uid_gid_from_env.exit.thread ], [ %.09, %_get_jobid_uid_gid_from_env.exit ]
  %.01018 = phi i32 [ %36, %_get_jobid_uid_gid_from_env.exit.thread ], [ %.010, %_get_jobid_uid_gid_from_env.exit ]
  %.01117 = phi i32 [ %25, %_get_jobid_uid_gid_from_env.exit.thread ], [ %.011, %_get_jobid_uid_gid_from_env.exit ]
  %44 = call i32 @get_log_level() #15
  %45 = icmp sgt i32 %44, 4
  br i1 %45, label %46, label %47

46:                                               ; preds = %43
  call void (i32, ptr, ...) @log_var(i32 noundef 5, ptr noundef nonnull @.str.49, ptr noundef %.16.val, i32 noundef %.0919, i32 noundef %.01117, i32 noundef %.01018) #15
  br label %47

47:                                               ; preds = %46, %43
  %48 = call i32 @xstrcmp(ptr noundef %.16.val, ptr noundef nonnull @.str.50) #15
  %.not6 = icmp eq i32 %48, 0
  br i1 %.not6, label %49, label %52

49:                                               ; preds = %47
  %50 = call i32 @spank_job_prolog(i32 noundef %.0919, i32 noundef %.01117, i32 noundef %.01018) #15
  %51 = icmp slt i32 %50, 0
  br i1 %51, label %60, label %59

52:                                               ; preds = %47
  %53 = call i32 @xstrcmp(ptr noundef %.16.val, ptr noundef nonnull @.str.51) #15
  %.not7 = icmp eq i32 %53, 0
  br i1 %.not7, label %54, label %57

54:                                               ; preds = %52
  %55 = call i32 @spank_job_epilog(i32 noundef %.0919, i32 noundef %.01117, i32 noundef %.01018) #15
  %56 = icmp slt i32 %55, 0
  br i1 %56, label %60, label %59

57:                                               ; preds = %52
  %58 = call i32 (ptr, ...) @error(ptr noundef nonnull @.str.52, ptr noundef %.16.val) #15
  br label %60

59:                                               ; preds = %54, %49
  br label %60

60:                                               ; preds = %54, %49, %59, %57, %41
  %.0 = phi i32 [ %42, %41 ], [ -1, %57 ], [ 0, %59 ], [ -1, %49 ], [ -1, %54 ]
  call void @llvm.lifetime.end.p0(i64 20, ptr nonnull %3) #15
  call void @llvm.lifetime.end.p0(i64 8, ptr nonnull %2) #15
  ret i32 %.0
}